target datalayout = "e-m:e-p270:32:32-p271:32:32-p272:64:64-i64:64-i128:128-f80:128-n8:16:32:64-S128"
target triple = "x86_64-pc-linux-gnu"

%"struct.std::atomic.6" = type { %"struct.std::__atomic_base.5" }
%"struct.std::__atomic_base.5" = type { i8 }
%"class.std::ios_base" = type { ptr, i64, i64, i32, i32, i32, ptr, %"struct.std::ios_base::_Words", [8 x %"struct.std::ios_base::_Words"], i32, ptr, %"class.std::locale" }
%"struct.std::ios_base::_Words" = type { ptr, i64 }
%"class.std::locale" = type { ptr }
%"class.arrow::util::ArrowLog" = type <{ %"class.arrow::util::ArrowLogBase", ptr, i8, [7 x i8] }>
%"class.arrow::util::ArrowLogBase" = type { ptr }
%class.anon.48 = type { i8 }
%"struct.arrow::GlobalState" = type { %"struct.std::atomic.6", [63 x i8], %"class.arrow::SystemMemoryPool", %"class.arrow::SystemDebugMemoryPool", %"class.arrow::MimallocMemoryPool", %"class.arrow::MimallocDebugMemoryPool" }
%"class.arrow::SystemMemoryPool" = type { %"class.arrow::BaseMemoryPoolImpl.2" }
%"class.arrow::BaseMemoryPoolImpl.2" = type { %"class.arrow::MemoryPool", [56 x i8], %"class.arrow::internal::MemoryPoolStats" }
%"class.arrow::MemoryPool" = type { ptr }
%"class.arrow::internal::MemoryPoolStats" = type { %"struct.std::atomic", %"struct.std::atomic", %"struct.std::atomic", %"struct.std::atomic", [32 x i8] }
%"struct.std::atomic" = type { %"struct.std::__atomic_base" }
%"struct.std::__atomic_base" = type { i64 }
%"class.arrow::SystemDebugMemoryPool" = type { %"class.arrow::BaseMemoryPoolImpl" }
%"class.arrow::BaseMemoryPoolImpl" = type { %"class.arrow::MemoryPool", [56 x i8], %"class.arrow::internal::MemoryPoolStats" }
%"class.arrow::MimallocMemoryPool" = type { %"class.arrow::BaseMemoryPoolImpl.4" }
%"class.arrow::BaseMemoryPoolImpl.4" = type { %"class.arrow::MemoryPool", [56 x i8], %"class.arrow::internal::MemoryPoolStats" }
%"class.arrow::MimallocDebugMemoryPool" = type { %"class.arrow::BaseMemoryPoolImpl.3" }
%"class.arrow::BaseMemoryPoolImpl.3" = type { %"class.arrow::MemoryPool", [56 x i8], %"class.arrow::internal::MemoryPoolStats" }

@.str = private unnamed_addr constant [118 x i8] c"generated/home/dtcxzyw/WorkSpace/Projects/compilers/llvm-opt-benchmark/bench/arrow/arrow/cpp/src/arrow/memory_pool.cc\00", align 1
@.str.1 = private unnamed_addr constant [50 x i8] c"Internal error: cannot create default memory pool\00", align 1
@_ZZN5arrow12_GLOBAL__N_114IsDebugEnabledEvE10is_enabled = internal global i8 0, align 1
@_ZGVZN5arrow12_GLOBAL__N_114IsDebugEnabledEvE10is_enabled = internal global i64 0, align 8

; Function Attrs: inlinehint mustprogress nounwind uwtable
define linkonce_odr noundef i32 @_ZStorSt12_Ios_IostateS_(i32 noundef %0, i32 noundef %1) #8 comdat {
  %3 = alloca i32, align 4
  %4 = alloca i32, align 4
  store i32 %0, ptr %3, align 4, !tbaa !415
  store i32 %1, ptr %4, align 4, !tbaa !415
  %5 = load i32, ptr %3, align 4, !tbaa !415
  %6 = load i32, ptr %4, align 4, !tbaa !415
  %7 = or i32 %5, %6
  ret i32 %7
}

; Function Attrs: mustprogress nounwind uwtable
define available_externally noundef i32 @_ZNKSt9basic_iosIcSt11char_traitsIcEE7rdstateEv(ptr noundef nonnull align 8 dereferenceable(264) %0) #4 align 2 {
  %2 = alloca ptr, align 8
  store ptr %0, ptr %2, align 8, !tbaa !413
  %3 = load ptr, ptr %2, align 8
  %4 = getelementptr inbounds nuw %"class.std::ios_base", ptr %3, i32 0, i32 5
  %5 = load i32, ptr %4, align 8, !tbaa !417
  ret i32 %5
}

; Function Attrs: mustprogress nounwind uwtable
define linkonce_odr noundef i64 @_ZNSt11char_traitsIcE6lengthEPKc(ptr noundef %0) #4 comdat align 2 {
  %2 = alloca ptr, align 8
  store ptr %0, ptr %2, align 8, !tbaa !10
  %3 = load ptr, ptr %2, align 8, !tbaa !10
  %4 = call i64 @strlen(ptr noundef %3) #3
  ret i64 %4
}

; Function Attrs: mustprogress uwtable
define available_externally void @_ZNSt9basic_iosIcSt11char_traitsIcEE8setstateESt12_Ios_Iostate(ptr noundef nonnull align 8 dereferenceable(264) %0, i32 noundef %1) #5 align 2 {
  %3 = alloca ptr, align 8
  %4 = alloca i32, align 4
  store ptr %0, ptr %3, align 8, !tbaa !413
  store i32 %1, ptr %4, align 4, !tbaa !415
  %5 = load ptr, ptr %3, align 8
  %6 = call noundef i32 @_ZNKSt9basic_iosIcSt11char_traitsIcEE7rdstateEv(ptr noundef nonnull align 8 dereferenceable(264) %5)
  %7 = load i32, ptr %4, align 4, !tbaa !415
  %8 = call noundef i32 @_ZStorSt12_Ios_IostateS_(i32 noundef %6, i32 noundef %7)
  call void @_ZNSt9basic_iosIcSt11char_traitsIcEE5clearESt12_Ios_Iostate(ptr noundef nonnull align 8 dereferenceable(264) %5, i32 noundef %8)
  ret void
}

; Function Attrs: inlinehint mustprogress uwtable
define available_externally noundef nonnull align 8 dereferenceable(8) ptr @_ZStlsISt11char_traitsIcEERSt13basic_ostreamIcT_ES5_PKc(ptr noundef nonnull align 8 dereferenceable(8) %0, ptr noundef %1) #9 {
  %3 = alloca ptr, align 8
  %4 = alloca ptr, align 8
  store ptr %0, ptr %3, align 8, !tbaa !71
  store ptr %1, ptr %4, align 8, !tbaa !10
  %5 = load ptr, ptr %4, align 8, !tbaa !10
  %6 = icmp ne ptr %5, null
  br i1 %6, label %13, label %7

7:                                                ; preds = %2
  %8 = load ptr, ptr %3, align 8, !tbaa !71
  %9 = load ptr, ptr %8, align 8, !tbaa !21
  %10 = getelementptr i8, ptr %9, i64 -24
  %11 = load i64, ptr %10, align 8
  %12 = getelementptr inbounds i8, ptr %8, i64 %11
  call void @_ZNSt9basic_iosIcSt11char_traitsIcEE8setstateESt12_Ios_Iostate(ptr noundef nonnull align 8 dereferenceable(264) %12, i32 noundef 1)
  br label %19

13:                                               ; preds = %2
  %14 = load ptr, ptr %3, align 8, !tbaa !71
  %15 = load ptr, ptr %4, align 8, !tbaa !10
  %16 = load ptr, ptr %4, align 8, !tbaa !10
  %17 = call noundef i64 @_ZNSt11char_traitsIcE6lengthEPKc(ptr noundef %16)
  %18 = call noundef nonnull align 8 dereferenceable(8) ptr @_ZSt16__ostream_insertIcSt11char_traitsIcEERSt13basic_ostreamIT_T0_ES6_PKS3_l(ptr noundef nonnull align 8 dereferenceable(8) %14, ptr noundef %15, i64 noundef %17)
  br label %19

19:                                               ; preds = %13, %7
  %20 = load ptr, ptr %3, align 8, !tbaa !71
  ret ptr %20
}

; Function Attrs: mustprogress uwtable
define internal noundef zeroext i1 @_ZN5arrow12_GLOBAL__N_114IsDebugEnabledEv() #5 personality ptr @__gxx_personality_v0 {
  %1 = alloca %class.anon.48, align 1
  %2 = alloca ptr, align 8
  %3 = alloca i32, align 4
  %4 = load atomic i8, ptr @_ZGVZN5arrow12_GLOBAL__N_114IsDebugEnabledEvE10is_enabled acquire, align 8
  %5 = icmp eq i8 %4, 0
  br i1 %5, label %6, label %14, !prof !14

6:                                                ; preds = %0
  %7 = call i32 @__cxa_guard_acquire(ptr @_ZGVZN5arrow12_GLOBAL__N_114IsDebugEnabledEvE10is_enabled) #3
  %8 = icmp ne i32 %7, 0
  br i1 %8, label %9, label %14

9:                                                ; preds = %6
  call void @llvm.lifetime.start.p0(i64 1, ptr %1) #3
  %10 = invoke noundef zeroext i1 @"_ZZN5arrow12_GLOBAL__N_114IsDebugEnabledEvENK3$_0clEv"(ptr noundef nonnull align 1 dereferenceable(1) %1)
          to label %11 unwind label %17

11:                                               ; preds = %9
  call void @llvm.lifetime.end.p0(i64 1, ptr %1) #3
  %12 = zext i1 %10 to i8
  store i8 %12, ptr @_ZZN5arrow12_GLOBAL__N_114IsDebugEnabledEvE10is_enabled, align 1, !tbaa !15
  %13 = call ptr @llvm.invariant.start.p0(i64 1, ptr @_ZZN5arrow12_GLOBAL__N_114IsDebugEnabledEvE10is_enabled)
  call void @__cxa_guard_release(ptr @_ZGVZN5arrow12_GLOBAL__N_114IsDebugEnabledEvE10is_enabled) #3
  br label %14

14:                                               ; preds = %11, %6, %0
  %15 = load i8, ptr @_ZZN5arrow12_GLOBAL__N_114IsDebugEnabledEvE10is_enabled, align 1, !tbaa !15, !range !17, !noundef !18
  %16 = trunc i8 %15 to i1
  ret i1 %16

17:                                               ; preds = %9
  %18 = landingpad { ptr, i32 }
          cleanup
  %19 = extractvalue { ptr, i32 } %18, 0
  store ptr %19, ptr %2, align 8
  %20 = extractvalue { ptr, i32 } %18, 1
  store i32 %20, ptr %3, align 4
  call void @llvm.lifetime.end.p0(i64 1, ptr %1) #3
  call void @__cxa_guard_abort(ptr @_ZGVZN5arrow12_GLOBAL__N_114IsDebugEnabledEvE10is_enabled) #3
  br label %21

21:                                               ; preds = %17
  %22 = load ptr, ptr %2, align 8
  %23 = load i32, ptr %3, align 4
  %24 = insertvalue { ptr, i32 } poison, ptr %22, 0
  %25 = insertvalue { ptr, i32 } %24, i32 %23, 1
  resume { ptr, i32 } %25
}

; Function Attrs: mustprogress uwtable
define linkonce_odr noundef nonnull align 8 dereferenceable(8) ptr @_ZN5arrow4util12ArrowLogBaselsIA50_cEERS1_RKT_(ptr noundef nonnull align 8 dereferenceable(8) %0, ptr noundef nonnull align 1 dereferenceable(50) %1) #5 comdat align 2 {
  %3 = alloca ptr, align 8
  %4 = alloca ptr, align 8
  store ptr %0, ptr %3, align 8, !tbaa !31
  store ptr %1, ptr %4, align 8, !tbaa !10
  %5 = load ptr, ptr %3, align 8
  %6 = load ptr, ptr %5, align 8, !tbaa !21
  %7 = getelementptr inbounds ptr, ptr %6, i64 2
  %8 = load ptr, ptr %7, align 8
  %9 = call noundef zeroext i1 %8(ptr noundef nonnull align 8 dereferenceable(8) %5)
  br i1 %9, label %10, label %18

10:                                               ; preds = %2
  %11 = load ptr, ptr %5, align 8, !tbaa !21
  %12 = getelementptr inbounds ptr, ptr %11, i64 3
  %13 = load ptr, ptr %12, align 8
  %14 = call noundef nonnull align 8 dereferenceable(8) ptr %13(ptr noundef nonnull align 8 dereferenceable(8) %5)
  %15 = load ptr, ptr %4, align 8, !tbaa !10
  %16 = getelementptr inbounds [50 x i8], ptr %15, i64 0, i64 0
  %17 = call noundef nonnull align 8 dereferenceable(8) ptr @_ZStlsISt11char_traitsIcEERSt13basic_ostreamIcT_ES5_PKc(ptr noundef nonnull align 8 dereferenceable(8) %14, ptr noundef %16)
  br label %18

18:                                               ; preds = %10, %2
  ret ptr %5
}

; Function Attrs: mustprogress uwtable
define linkonce_odr noundef ptr @_ZN5arrow11GlobalState20mimalloc_memory_poolEv(ptr noundef nonnull align 64 dereferenceable(576) %0) #5 comdat align 2 {
  %2 = alloca ptr, align 8
  %3 = alloca ptr, align 8
  store ptr %0, ptr %3, align 8, !tbaa !35
  %4 = load ptr, ptr %3, align 8
  %5 = call noundef zeroext i1 @_ZN5arrow12_GLOBAL__N_114IsDebugEnabledEv()
  br i1 %5, label %6, label %8

6:                                                ; preds = %1
  %7 = getelementptr inbounds nuw %"struct.arrow::GlobalState", ptr %4, i32 0, i32 5
  store ptr %7, ptr %2, align 8
  br label %10

8:                                                ; preds = %1
  %9 = getelementptr inbounds nuw %"struct.arrow::GlobalState", ptr %4, i32 0, i32 4
  store ptr %9, ptr %2, align 8
  br label %10

10:                                               ; preds = %8, %6
  %11 = load ptr, ptr %2, align 8
  ret ptr %11
}

; Function Attrs: mustprogress uwtable
define linkonce_odr noundef ptr @_ZN5arrow11GlobalState18system_memory_poolEv(ptr noundef nonnull align 64 dereferenceable(576) %0) #5 comdat align 2 {
  %2 = alloca ptr, align 8
  %3 = alloca ptr, align 8
  store ptr %0, ptr %3, align 8, !tbaa !35
  %4 = load ptr, ptr %3, align 8
  %5 = call noundef zeroext i1 @_ZN5arrow12_GLOBAL__N_114IsDebugEnabledEv()
  br i1 %5, label %6, label %8

6:                                                ; preds = %1
  %7 = getelementptr inbounds nuw %"struct.arrow::GlobalState", ptr %4, i32 0, i32 3
  store ptr %7, ptr %2, align 8
  br label %10

8:                                                ; preds = %1
  %9 = getelementptr inbounds nuw %"struct.arrow::GlobalState", ptr %4, i32 0, i32 2
  store ptr %9, ptr %2, align 8
  br label %10

10:                                               ; preds = %8, %6
  %11 = load ptr, ptr %2, align 8
  ret ptr %11
}

; Function Attrs: mustprogress uwtable
define noundef ptr @_ZN5arrow19default_memory_poolEv() #5 personality ptr @__gxx_personality_v0 {
  %1 = alloca ptr, align 8
  %2 = alloca i8, align 1
  %3 = alloca i32, align 4
  %4 = alloca %"class.arrow::util::ArrowLog", align 8
  %5 = alloca ptr, align 8
  %6 = alloca i32, align 4
  call void @llvm.lifetime.start.p0(i64 1, ptr %2) #3
  %7 = call noundef zeroext i8 @_ZN5arrow12_GLOBAL__N_114DefaultBackendEv()
  store i8 %7, ptr %2, align 1, !tbaa !8
  %8 = load i8, ptr %2, align 1, !tbaa !8
  switch i8 %8, label %13 [
    i8 0, label %9
    i8 2, label %11
  ]

9:                                                ; preds = %0
  %10 = call noundef ptr @_ZN5arrow11GlobalState18system_memory_poolEv(ptr noundef nonnull align 64 dereferenceable(576) @_ZN5arrowL12global_stateE)
  store ptr %10, ptr %1, align 8
  store i32 1, ptr %3, align 4
  br label %20

11:                                               ; preds = %0
  %12 = call noundef ptr @_ZN5arrow11GlobalState20mimalloc_memory_poolEv(ptr noundef nonnull align 64 dereferenceable(576) @_ZN5arrowL12global_stateE)
  store ptr %12, ptr %1, align 8
  store i32 1, ptr %3, align 4
  br label %20

13:                                               ; preds = %0
  call void @llvm.lifetime.start.p0(i64 24, ptr %4) #3
  call void @_ZN5arrow4util8ArrowLogC1EPKciNS0_13ArrowLogLevelE(ptr noundef nonnull align 8 dereferenceable(17) %4, ptr noundef @.str, i32 noundef 683, i32 noundef 3)
  %14 = invoke noundef nonnull align 8 dereferenceable(8) ptr @_ZN5arrow4util12ArrowLogBaselsIA50_cEERS1_RKT_(ptr noundef nonnull align 8 dereferenceable(8) %4, ptr noundef nonnull align 1 dereferenceable(50) @.str.1)
          to label %15 unwind label %16

15:                                               ; preds = %13
  call void @_ZN5arrow4util8ArrowLogD1Ev(ptr noundef nonnull align 8 dereferenceable(17) %4) #3
  call void @llvm.lifetime.end.p0(i64 24, ptr %4) #3
  store ptr null, ptr %1, align 8
  store i32 1, ptr %3, align 4
  br label %20

16:                                               ; preds = %13
  %17 = landingpad { ptr, i32 }
          cleanup
  %18 = extractvalue { ptr, i32 } %17, 0
  store ptr %18, ptr %5, align 8
  %19 = extractvalue { ptr, i32 } %17, 1
  store i32 %19, ptr %6, align 4
  call void @_ZN5arrow4util8ArrowLogD1Ev(ptr noundef nonnull align 8 dereferenceable(17) %4) #3
  call void @llvm.lifetime.end.p0(i64 24, ptr %4) #3
  call void @llvm.lifetime.end.p0(i64 1, ptr %2) #3
  br label %22

20:                                               ; preds = %15, %11, %9
  call void @llvm.lifetime.end.p0(i64 1, ptr %2) #3
  %21 = load ptr, ptr %1, align 8
  ret ptr %21

22:                                               ; preds = %16
  %23 = load ptr, ptr %5, align 8
  %24 = load i32, ptr %6, align 4
  %25 = insertvalue { ptr, i32 } poison, ptr %23, 0
  %26 = insertvalue { ptr, i32 } %25, i32 %24, 1
  resume { ptr, i32 } %26
}