; Function Attrs: mustprogress uwtable
define noundef ptr @_ZN5arrow19default_memory_poolEv() local_unnamed_addr #4 personality ptr @__gxx_personality_v0 {
  %1 = alloca %"class.arrow::util::ArrowLog", align 8
  %2 = tail call fastcc noundef zeroext i8 @_ZN5arrow12_GLOBAL__N_114DefaultBackendEv()
  switch i8 %2, label %31 [
    i8 0, label %3
    i8 2, label %17
  ]

3:                                                ; preds = %0
  %4 = load atomic i8, ptr @_ZGVZN5arrow12_GLOBAL__N_114IsDebugEnabledEvE10is_enabled acquire, align 8
  %5 = icmp eq i8 %4, 0
  br i1 %5, label %6, label %_ZN5arrow11GlobalState18system_memory_poolEv.exit, !prof !3

6:                                                ; preds = %3
  %7 = tail call i32 @__cxa_guard_acquire(ptr nonnull @_ZGVZN5arrow12_GLOBAL__N_114IsDebugEnabledEvE10is_enabled) #32
  %.not.i.i = icmp eq i32 %7, 0
  br i1 %.not.i.i, label %_ZN5arrow11GlobalState18system_memory_poolEv.exit, label %8

8:                                                ; preds = %6
  %9 = invoke fastcc noundef zeroext i1 @"_ZZN5arrow12_GLOBAL__N_114IsDebugEnabledEvENK3$_0clEv"()
          to label %10 unwind label %13

10:                                               ; preds = %8
  %11 = zext i1 %9 to i8
  store i8 %11, ptr @_ZZN5arrow12_GLOBAL__N_114IsDebugEnabledEvE10is_enabled, align 1, !tbaa !4
  %12 = tail call ptr @llvm.invariant.start.p0(i64 1, ptr nonnull @_ZZN5arrow12_GLOBAL__N_114IsDebugEnabledEvE10is_enabled)
  tail call void @__cxa_guard_release(ptr nonnull @_ZGVZN5arrow12_GLOBAL__N_114IsDebugEnabledEvE10is_enabled) #32
  br label %_ZN5arrow11GlobalState18system_memory_poolEv.exit

common.resume:                                    ; preds = %42, %27, %13
  %common.resume.op = phi { ptr, i32 } [ %14, %13 ], [ %28, %27 ], [ %43, %42 ]
  resume { ptr, i32 } %common.resume.op

13:                                               ; preds = %8
  %14 = landingpad { ptr, i32 }
          cleanup
  tail call void @__cxa_guard_abort(ptr nonnull @_ZGVZN5arrow12_GLOBAL__N_114IsDebugEnabledEvE10is_enabled) #32
  br label %common.resume

_ZN5arrow11GlobalState18system_memory_poolEv.exit: ; preds = %3, %6, %10
  %15 = load i8, ptr @_ZZN5arrow12_GLOBAL__N_114IsDebugEnabledEvE10is_enabled, align 1, !tbaa !4, !range !8, !noundef !9
  %16 = trunc nuw i8 %15 to i1
  %.0.v.i = select i1 %16, i64 192, i64 64
  %.0.i = getelementptr inbounds nuw i8, ptr @_ZN5arrowL12global_stateE, i64 %.0.v.i
  br label %44

17:                                               ; preds = %0
  %18 = load atomic i8, ptr @_ZGVZN5arrow12_GLOBAL__N_114IsDebugEnabledEvE10is_enabled acquire, align 8
  %19 = icmp eq i8 %18, 0
  br i1 %19, label %20, label %_ZN5arrow11GlobalState20mimalloc_memory_poolEv.exit, !prof !3

20:                                               ; preds = %17
  %21 = tail call i32 @__cxa_guard_acquire(ptr nonnull @_ZGVZN5arrow12_GLOBAL__N_114IsDebugEnabledEvE10is_enabled) #32
  %.not.i.i5 = icmp eq i32 %21, 0
  br i1 %.not.i.i5, label %_ZN5arrow11GlobalState20mimalloc_memory_poolEv.exit, label %22

22:                                               ; preds = %20
  %23 = invoke fastcc noundef zeroext i1 @"_ZZN5arrow12_GLOBAL__N_114IsDebugEnabledEvENK3$_0clEv"()
          to label %24 unwind label %27

24:                                               ; preds = %22
  %25 = zext i1 %23 to i8
  store i8 %25, ptr @_ZZN5arrow12_GLOBAL__N_114IsDebugEnabledEvE10is_enabled, align 1, !tbaa !4
  %26 = tail call ptr @llvm.invariant.start.p0(i64 1, ptr nonnull @_ZZN5arrow12_GLOBAL__N_114IsDebugEnabledEvE10is_enabled)
  tail call void @__cxa_guard_release(ptr nonnull @_ZGVZN5arrow12_GLOBAL__N_114IsDebugEnabledEvE10is_enabled) #32
  br label %_ZN5arrow11GlobalState20mimalloc_memory_poolEv.exit

27:                                               ; preds = %22
  %28 = landingpad { ptr, i32 }
          cleanup
  tail call void @__cxa_guard_abort(ptr nonnull @_ZGVZN5arrow12_GLOBAL__N_114IsDebugEnabledEvE10is_enabled) #32
  br label %common.resume

_ZN5arrow11GlobalState20mimalloc_memory_poolEv.exit: ; preds = %17, %20, %24
  %29 = load i8, ptr @_ZZN5arrow12_GLOBAL__N_114IsDebugEnabledEvE10is_enabled, align 1, !tbaa !4, !range !8, !noundef !9
  %30 = trunc nuw i8 %29 to i1
  %.0.v.i3 = select i1 %30, i64 448, i64 320
  %.0.i4 = getelementptr inbounds nuw i8, ptr @_ZN5arrowL12global_stateE, i64 %.0.v.i3
  br label %44

31:                                               ; preds = %0
  call void @llvm.lifetime.start.p0(i64 24, ptr nonnull %1) #32
  call void @_ZN5arrow4util8ArrowLogC1EPKciNS0_13ArrowLogLevelE(ptr noundef nonnull align 8 dereferenceable(17) %1, ptr noundef nonnull @.str, i32 noundef 683, i32 noundef 3)
  %32 = load ptr, ptr %1, align 8, !tbaa !10
  %33 = getelementptr inbounds nuw i8, ptr %32, i64 16
  %34 = load ptr, ptr %33, align 8
  %35 = invoke noundef zeroext i1 %34(ptr noundef nonnull align 8 dereferenceable(8) %1)
          to label %.noexc unwind label %42

.noexc:                                           ; preds = %31
  br i1 %35, label %36, label %_ZN5arrow4util12ArrowLogBaselsIA50_cEERS1_RKT_.exit

36:                                               ; preds = %.noexc
  %37 = load ptr, ptr %1, align 8, !tbaa !10
  %38 = getelementptr inbounds nuw i8, ptr %37, i64 24
  %39 = load ptr, ptr %38, align 8
  %40 = invoke noundef nonnull align 8 dereferenceable(8) ptr %39(ptr noundef nonnull align 8 dereferenceable(8) %1)
          to label %.noexc6 unwind label %42

.noexc6:                                          ; preds = %36
  %41 = invoke noundef nonnull align 8 dereferenceable(8) ptr @_ZSt16__ostream_insertIcSt11char_traitsIcEERSt13basic_ostreamIT_T0_ES6_PKS3_l(ptr noundef nonnull align 8 dereferenceable(8) %40, ptr noundef nonnull @.str.1, i64 noundef 49)
          to label %_ZN5arrow4util12ArrowLogBaselsIA50_cEERS1_RKT_.exit unwind label %42

_ZN5arrow4util12ArrowLogBaselsIA50_cEERS1_RKT_.exit: ; preds = %.noexc, %.noexc6
  call void @_ZN5arrow4util8ArrowLogD1Ev(ptr noundef nonnull align 8 dereferenceable(17) %1) #32
  call void @llvm.lifetime.end.p0(i64 24, ptr nonnull %1) #32
  br label %44

42:                                               ; preds = %.noexc6, %36, %31
  %43 = landingpad { ptr, i32 }
          cleanup
  call void @_ZN5arrow4util8ArrowLogD1Ev(ptr noundef nonnull align 8 dereferenceable(17) %1) #32
  call void @llvm.lifetime.end.p0(i64 24, ptr nonnull %1) #32
  br label %common.resume

44:                                               ; preds = %_ZN5arrow4util12ArrowLogBaselsIA50_cEERS1_RKT_.exit, %_ZN5arrow11GlobalState20mimalloc_memory_poolEv.exit, %_ZN5arrow11GlobalState18system_memory_poolEv.exit
  %.0 = phi ptr [ null, %_ZN5arrow4util12ArrowLogBaselsIA50_cEERS1_RKT_.exit ], [ %.0.i4, %_ZN5arrow11GlobalState20mimalloc_memory_poolEv.exit ], [ %.0.i, %_ZN5arrow11GlobalState18system_memory_poolEv.exit ]
  ret ptr %.0
}